; Function Attrs: null_pointer_is_valid sspstrong uwtable
define internal i32 @dissect_couchbase_pdu(ptr noundef %0, ptr noundef %1, ptr noundef %2, ptr noundef %3) #0 {
  %5 = tail call zeroext i8 @tvb_get_uint8(ptr noundef %0, i32 noundef 0)
  %6 = zext i8 %5 to i32
  %7 = tail call ptr @try_val_to_str(i32 noundef %6, ptr noundef nonnull @magic_vals)
  %8 = icmp eq ptr %7, null
  br i1 %8, label %13, label %9

9:                                                ; preds = %4
  %10 = load i8, ptr @couchbase_desegment_body, align 1, !range !6, !noundef !7
  %11 = trunc nuw i8 %10 to i1
  tail call void @tcp_dissect_pdus(ptr noundef %0, ptr noundef %1, ptr noundef %2, i1 noundef zeroext %11, i32 noundef 24, ptr noundef nonnull @get_couchbase_pdu_length, ptr noundef nonnull @dissect_couchbase, ptr noundef %3)
  %12 = tail call i32 @tvb_captured_length(ptr noundef %0)
  br label %13

13:                                               ; preds = %4, %9
  %.0 = phi i32 [ %12, %9 ], [ 0, %4 ]
  ret i32 %.0
}